target datalayout = "e-m:e-p270:32:32-p271:32:32-p272:64:64-i64:64-i128:128-f80:128-n8:16:32:64-S128"
target triple = "x86_64-pc-linux-gnu"

%"struct.llvm::support::detail::packed_endian_specific_integral" = type { %struct.anon }
%struct.anon = type { [4 x i8] }
%"struct.llvm::support::detail::packed_endian_specific_integral.2" = type { %struct.anon.3 }
%struct.anon.3 = type { [8 x i8] }
%"union.llvm::object::DataRefImpl" = type { i64 }
%"struct.llvm::support::detail::packed_endian_specific_integral.16" = type { %struct.anon.17 }
%struct.anon.17 = type { [2 x i8] }
%"struct.llvm::support::detail::packed_endian_specific_integral.52" = type { %struct.anon.53 }
%struct.anon.53 = type { [2 x i8] }
%"class.llvm::object::BasicSymbolRef" = type { %"union.llvm::object::DataRefImpl", ptr }
%"struct.llvm::object::XCOFFSymbolEntry64" = type { %"struct.llvm::support::detail::packed_endian_specific_integral.2", %"struct.llvm::support::detail::packed_endian_specific_integral", %"struct.llvm::support::detail::packed_endian_specific_integral.52", %union.anon.120, i8, i8 }
%union.anon.120 = type { %"struct.llvm::support::detail::packed_endian_specific_integral.16" }
%"struct.llvm::object::XCOFFSymbolEntry32" = type { %union.anon.118, %"struct.llvm::support::detail::packed_endian_specific_integral", %"struct.llvm::support::detail::packed_endian_specific_integral.52", %union.anon.119, i8, i8 }
%union.anon.118 = type { [8 x i8] }
%union.anon.119 = type { %"struct.llvm::support::detail::packed_endian_specific_integral.16" }

; Function Attrs: mustprogress nounwind uwtable
define linkonce_odr hidden noundef ptr @_ZN4llvm16cast_convert_valINS_6object15XCOFFObjectFileEPKNS1_12SymbolicFileES5_E4doitES5_(ptr noundef %0) #0 comdat align 2 {
  %2 = alloca ptr, align 8
  store ptr %0, ptr %2, align 8
  %3 = load ptr, ptr %2, align 8
  ret ptr %3
}

; Function Attrs: mustprogress nounwind uwtable
define linkonce_odr hidden noundef ptr @_ZN4llvm8CastInfoINS_6object15XCOFFObjectFileEPKNS1_12SymbolicFileEvE6doCastERKS5_(ptr noundef nonnull align 8 dereferenceable(8) %0) #0 comdat align 2 {
  %2 = alloca ptr, align 8
  store ptr %0, ptr %2, align 8
  %3 = load ptr, ptr %2, align 8
  %4 = load ptr, ptr %3, align 8
  %5 = call noundef ptr @_ZN4llvm16cast_convert_valINS_6object15XCOFFObjectFileEPKNS1_12SymbolicFileES5_E4doitES5_(ptr noundef %4)
  ret ptr %5
}

; Function Attrs: mustprogress nounwind uwtable
define linkonce_odr hidden noundef ptr @_ZN4llvm4castINS_6object15XCOFFObjectFileEKNS1_12SymbolicFileEEEDcPT0_(ptr noundef %0) #0 comdat {
  %2 = alloca ptr, align 8
  store ptr %0, ptr %2, align 8
  %3 = call noundef ptr @_ZN4llvm8CastInfoINS_6object15XCOFFObjectFileEPKNS1_12SymbolicFileEvE6doCastERKS5_(ptr noundef nonnull align 8 dereferenceable(8) %2)
  ret ptr %3
}

; Function Attrs: mustprogress nounwind uwtable
define linkonce_odr hidden noundef ptr @_ZNK4llvm6object14BasicSymbolRef9getObjectEv(ptr noundef nonnull align 8 dereferenceable(16) %0) #0 comdat align 2 {
  %2 = alloca ptr, align 8
  store ptr %0, ptr %2, align 8
  %3 = load ptr, ptr %2, align 8
  %4 = getelementptr inbounds nuw %"class.llvm::object::BasicSymbolRef", ptr %3, i32 0, i32 1
  %5 = load ptr, ptr %4, align 8
  ret ptr %5
}

; Function Attrs: mustprogress nounwind uwtable
define linkonce_odr hidden i64 @_ZNK4llvm6object14BasicSymbolRef17getRawDataRefImplEv(ptr noundef nonnull align 8 dereferenceable(16) %0) #0 comdat align 2 {
  %2 = alloca %"union.llvm::object::DataRefImpl", align 8
  %3 = alloca ptr, align 8
  store ptr %0, ptr %3, align 8
  %4 = load ptr, ptr %3, align 8
  %5 = getelementptr inbounds nuw %"class.llvm::object::BasicSymbolRef", ptr %4, i32 0, i32 0
  call void @llvm.memcpy.p0.p0.i64(ptr align 8 %2, ptr align 8 %5, i64 8, i1 false)
  %6 = getelementptr inbounds nuw %"union.llvm::object::DataRefImpl", ptr %2, i32 0, i32 0
  %7 = load i64, ptr %6, align 8
  ret i64 %7
}

; Function Attrs: mustprogress nounwind uwtable
define linkonce_odr hidden noundef ptr @_ZNK4llvm6object14XCOFFSymbolRef9getObjectEv(ptr noundef nonnull align 8 dereferenceable(16) %0) #0 comdat align 2 {
  %2 = alloca ptr, align 8
  store ptr %0, ptr %2, align 8
  %3 = load ptr, ptr %2, align 8
  %4 = call noundef ptr @_ZNK4llvm6object14BasicSymbolRef9getObjectEv(ptr noundef nonnull align 8 dereferenceable(16) %3)
  %5 = call noundef ptr @_ZN4llvm4castINS_6object15XCOFFObjectFileEKNS1_12SymbolicFileEEEDcPT0_(ptr noundef %4)
  ret ptr %5
}

; Function Attrs: mustprogress nounwind uwtable
define linkonce_odr hidden noundef zeroext i8 @_ZNK4llvm6object14XCOFFSymbolRef15getStorageClassEv(ptr noundef nonnull align 8 dereferenceable(16) %0) #0 comdat align 2 {
  %2 = alloca ptr, align 8
  %3 = alloca %"union.llvm::object::DataRefImpl", align 8
  %4 = alloca %"union.llvm::object::DataRefImpl", align 8
  store ptr %0, ptr %2, align 8
  %5 = load ptr, ptr %2, align 8
  %6 = call noundef ptr @_ZNK4llvm6object14XCOFFSymbolRef9getObjectEv(ptr noundef nonnull align 8 dereferenceable(16) %5)
  %7 = load ptr, ptr %6, align 8
  %8 = getelementptr inbounds ptr, ptr %7, i64 8
  %9 = load ptr, ptr %8, align 8
  %10 = call noundef zeroext i1 %9(ptr noundef nonnull align 8 dereferenceable(96) %6)
  br i1 %10, label %11, label %18

11:                                               ; preds = %1
  %12 = call i64 @_ZNK4llvm6object14BasicSymbolRef17getRawDataRefImplEv(ptr noundef nonnull align 8 dereferenceable(16) %5)
  %13 = getelementptr inbounds nuw %"union.llvm::object::DataRefImpl", ptr %3, i32 0, i32 0
  store i64 %12, ptr %13, align 8
  %14 = load i64, ptr %3, align 8
  %15 = inttoptr i64 %14 to ptr
  %16 = getelementptr inbounds nuw %"struct.llvm::object::XCOFFSymbolEntry64", ptr %15, i32 0, i32 4
  %17 = load i8, ptr %16, align 1
  br label %25

18:                                               ; preds = %1
  %19 = call i64 @_ZNK4llvm6object14BasicSymbolRef17getRawDataRefImplEv(ptr noundef nonnull align 8 dereferenceable(16) %5)
  %20 = getelementptr inbounds nuw %"union.llvm::object::DataRefImpl", ptr %4, i32 0, i32 0
  store i64 %19, ptr %20, align 8
  %21 = load i64, ptr %4, align 8
  %22 = inttoptr i64 %21 to ptr
  %23 = getelementptr inbounds nuw %"struct.llvm::object::XCOFFSymbolEntry32", ptr %22, i32 0, i32 4
  %24 = load i8, ptr %23, align 1
  br label %25

25:                                               ; preds = %18, %11
  %26 = phi i8 [ %17, %11 ], [ %24, %18 ]
  ret i8 %26
}

; Function Attrs: mustprogress nounwind uwtable
define dso_local noundef zeroext i1 @_ZNK4llvm6object14XCOFFSymbolRef13isCsectSymbolEv(ptr noundef nonnull align 8 dereferenceable(16) %0) #0 align 2 {
  %2 = alloca ptr, align 8
  %3 = alloca i8, align 1
  store ptr %0, ptr %2, align 8
  %4 = load ptr, ptr %2, align 8
  %5 = call noundef zeroext i8 @_ZNK4llvm6object14XCOFFSymbolRef15getStorageClassEv(ptr noundef nonnull align 8 dereferenceable(16) %4)
  store i8 %5, ptr %3, align 1
  %6 = load i8, ptr %3, align 1
  %7 = zext i8 %6 to i32
  %8 = icmp eq i32 %7, 2
  br i1 %8, label %17, label %9

9:                                                ; preds = %1
  %10 = load i8, ptr %3, align 1
  %11 = zext i8 %10 to i32
  %12 = icmp eq i32 %11, 111
  br i1 %12, label %17, label %13

13:                                               ; preds = %9
  %14 = load i8, ptr %3, align 1
  %15 = zext i8 %14 to i32
  %16 = icmp eq i32 %15, 107
  br label %17

17:                                               ; preds = %13, %9, %1
  %18 = phi i1 [ true, %9 ], [ true, %1 ], [ %16, %13 ]
  ret i1 %18
}