; Function Attrs: mustprogress nounwind uwtable
define dso_local noundef zeroext i1 @_ZNK4llvm6object14XCOFFSymbolRef13isCsectSymbolEv(ptr nocapture noundef nonnull readonly align 8 dereferenceable(16) %0) local_unnamed_addr #0 align 2 {
  %2 = getelementptr inbounds nuw i8, ptr %0, i64 8
  %3 = load ptr, ptr %2, align 8
  %4 = load ptr, ptr %3, align 8
  %5 = getelementptr inbounds i8, ptr %4, i64 64
  %6 = load ptr, ptr %5, align 8
  %7 = tail call noundef zeroext i1 %6(ptr noundef nonnull align 8 dereferenceable(96) %3) #23
  %.sroa.0.0.copyload.i.i = load i64, ptr %0, align 8
  %.pn.i = inttoptr i64 %.sroa.0.0.copyload.i.i to ptr
  %.in.i = getelementptr inbounds nuw i8, ptr %.pn.i, i64 16
  %8 = load i8, ptr %.in.i, align 1
  switch i8 %8, label %9 [
    i8 111, label %switch.edge
    i8 2, label %switch.edge
    i8 107, label %switch.edge
  ]

9:                                                ; preds = %1
  br label %switch.edge

switch.edge:                                      ; preds = %1, %1, %1, %9
  %10 = phi i1 [ true, %1 ], [ false, %9 ], [ true, %1 ], [ true, %1 ]
  ret i1 %10
}